target datalayout = "e-m:e-p270:32:32-p271:32:32-p272:64:64-i64:64-i128:128-f80:128-n8:16:32:64-S128"
target triple = "x86_64-pc-linux-gnu"

%struct.Abc_Ntk_t_ = type { i32, i32, ptr, ptr, ptr, ptr, ptr, ptr, ptr, ptr, ptr, ptr, ptr, [11 x i32], i32, i32, i32, i32, ptr, i32, ptr, ptr, i32, i32, i32, double, i32, %struct.Vec_Int_t_, ptr, ptr, ptr, ptr, ptr, float, i32, ptr, ptr, ptr, ptr, ptr, ptr, ptr, ptr, ptr, ptr, ptr, ptr, ptr, ptr, ptr, ptr, ptr, ptr, ptr, ptr, ptr, ptr }
%struct.Vec_Int_t_ = type { i32, i32, ptr }
%struct.Abc_Obj_t_ = type { ptr, ptr, i32, i32, %struct.Vec_Int_t_, %struct.Vec_Int_t_, %union.anon, %union.anon.0 }
%union.anon = type { ptr }
%union.anon.0 = type { ptr }
%struct.Vec_Ptr_t_ = type { i32, i32, ptr }

@.str = private unnamed_addr constant [3 x i8] c"wb\00", align 1
@.str.1 = private unnamed_addr constant [36 x i8] c"Cannot open file \22%s\22 for writing.\0A\00", align 1
@.str.2 = private unnamed_addr constant [10 x i8] c"%d %s %s\0A\00", align 1
@.str.3 = private unnamed_addr constant [4 x i8] c"SA0\00", align 1
@.str.4 = private unnamed_addr constant [4 x i8] c"SA1\00", align 1
@.str.5 = private unnamed_addr constant [4 x i8] c"NEG\00", align 1
@.str.6 = private unnamed_addr constant [75 x i8] c"Generated fault list \22%s\22 for network \22%s\22 with %d nodes and %d %sfaults.\0A\00", align 1
@.str.7 = private unnamed_addr constant [10 x i8] c"stuck-at \00", align 1
@.str.8 = private unnamed_addr constant [1 x i8] zeroinitializer, align 1

; Function Attrs: inlinehint nounwind uwtable
define internal ptr @Vec_PtrEntry(ptr noundef %0, i32 noundef %1) #3 {
  %3 = alloca ptr, align 8
  %4 = alloca i32, align 4
  store ptr %0, ptr %3, align 8, !tbaa !40
  store i32 %1, ptr %4, align 4, !tbaa !10
  %5 = load ptr, ptr %3, align 8, !tbaa !40
  %6 = getelementptr inbounds nuw %struct.Vec_Ptr_t_, ptr %5, i32 0, i32 2
  %7 = load ptr, ptr %6, align 8, !tbaa !69
  %8 = load i32, ptr %4, align 4, !tbaa !10
  %9 = sext i32 %8 to i64
  %10 = getelementptr inbounds ptr, ptr %7, i64 %9
  %11 = load ptr, ptr %10, align 8, !tbaa !70
  ret ptr %11
}

; Function Attrs: inlinehint nounwind uwtable
define internal i32 @Abc_NtkNodeNum(ptr noundef %0) #3 {
  %2 = alloca ptr, align 8
  store ptr %0, ptr %2, align 8, !tbaa !3
  %3 = load ptr, ptr %2, align 8, !tbaa !3
  %4 = getelementptr inbounds nuw %struct.Abc_Ntk_t_, ptr %3, i32 0, i32 13
  %5 = getelementptr inbounds [11 x i32], ptr %4, i64 0, i64 7
  %6 = load i32, ptr %5, align 4, !tbaa !10
  ret i32 %6
}

; Function Attrs: inlinehint nounwind uwtable
define internal ptr @Abc_NtkName(ptr noundef %0) #3 {
  %2 = alloca ptr, align 8
  store ptr %0, ptr %2, align 8, !tbaa !3
  %3 = load ptr, ptr %2, align 8, !tbaa !3
  %4 = getelementptr inbounds nuw %struct.Abc_Ntk_t_, ptr %3, i32 0, i32 2
  %5 = load ptr, ptr %4, align 8, !tbaa !43
  ret ptr %5
}

; Function Attrs: inlinehint nounwind uwtable
define internal i32 @Abc_ObjIsNode(ptr noundef %0) #3 {
  %2 = alloca ptr, align 8
  store ptr %0, ptr %2, align 8, !tbaa !32
  %3 = load ptr, ptr %2, align 8, !tbaa !32
  %4 = getelementptr inbounds nuw %struct.Abc_Obj_t_, ptr %3, i32 0, i32 3
  %5 = load i32, ptr %4, align 4
  %6 = and i32 %5, 15
  %7 = icmp eq i32 %6, 7
  %8 = zext i1 %7 to i32
  ret i32 %8
}

; Function Attrs: inlinehint nounwind uwtable
define internal ptr @Abc_NtkObj(ptr noundef %0, i32 noundef %1) #3 {
  %3 = alloca ptr, align 8
  %4 = alloca i32, align 4
  store ptr %0, ptr %3, align 8, !tbaa !3
  store i32 %1, ptr %4, align 4, !tbaa !10
  %5 = load ptr, ptr %3, align 8, !tbaa !3
  %6 = getelementptr inbounds nuw %struct.Abc_Ntk_t_, ptr %5, i32 0, i32 5
  %7 = load ptr, ptr %6, align 8, !tbaa !31
  %8 = load i32, ptr %4, align 4, !tbaa !10
  %9 = call ptr @Vec_PtrEntry(ptr noundef %7, i32 noundef %8)
  ret ptr %9
}

; Function Attrs: inlinehint nounwind uwtable
define internal i32 @Vec_PtrSize(ptr noundef %0) #3 {
  %2 = alloca ptr, align 8
  store ptr %0, ptr %2, align 8, !tbaa !40
  %3 = load ptr, ptr %2, align 8, !tbaa !40
  %4 = getelementptr inbounds nuw %struct.Vec_Ptr_t_, ptr %3, i32 0, i32 1
  %5 = load i32, ptr %4, align 4, !tbaa !41
  ret i32 %5
}

; Function Attrs: nounwind uwtable
define void @Abc_NtkGenFaultList(ptr noundef %0, ptr noundef %1, i32 noundef %2) #0 {
  %4 = alloca ptr, align 8
  %5 = alloca ptr, align 8
  %6 = alloca i32, align 4
  %7 = alloca ptr, align 8
  %8 = alloca ptr, align 8
  %9 = alloca ptr, align 8
  %10 = alloca i32, align 4
  %11 = alloca i32, align 4
  %12 = alloca ptr, align 8
  %13 = alloca i32, align 4
  %14 = alloca ptr, align 8
  %15 = alloca i32, align 4
  store ptr %0, ptr %4, align 8, !tbaa !3
  store ptr %1, ptr %5, align 8, !tbaa !8
  store i32 %2, ptr %6, align 4, !tbaa !10
  call void @llvm.lifetime.start.p0(i64 8, ptr %7) #14
  %16 = load ptr, ptr %4, align 8, !tbaa !3
  %17 = getelementptr inbounds nuw %struct.Abc_Ntk_t_, ptr %16, i32 0, i32 30
  %18 = load ptr, ptr %17, align 8, !tbaa !12
  store ptr %18, ptr %7, align 8, !tbaa !27
  call void @llvm.lifetime.start.p0(i64 8, ptr %8) #14
  call void @llvm.lifetime.start.p0(i64 8, ptr %9) #14
  call void @llvm.lifetime.start.p0(i64 4, ptr %10) #14
  call void @llvm.lifetime.start.p0(i64 4, ptr %11) #14
  store i32 1, ptr %11, align 4, !tbaa !10
  call void @llvm.lifetime.start.p0(i64 8, ptr %12) #14
  %19 = load ptr, ptr %5, align 8, !tbaa !8
  %20 = call noalias ptr @fopen(ptr noundef %19, ptr noundef @.str)
  store ptr %20, ptr %12, align 8, !tbaa !29
  %21 = load ptr, ptr %12, align 8, !tbaa !29
  %22 = icmp eq ptr %21, null
  br i1 %22, label %23, label %26

23:                                               ; preds = %3
  %24 = load ptr, ptr %5, align 8, !tbaa !8
  %25 = call i32 (ptr, ...) @printf(ptr noundef @.str.1, ptr noundef %24)
  store i32 1, ptr %13, align 4
  br label %129

26:                                               ; preds = %3
  store i32 0, ptr %10, align 4, !tbaa !10
  br label %27

27:                                               ; preds = %112, %26
  %28 = load i32, ptr %10, align 4, !tbaa !10
  %29 = load ptr, ptr %4, align 8, !tbaa !3
  %30 = getelementptr inbounds nuw %struct.Abc_Ntk_t_, ptr %29, i32 0, i32 5
  %31 = load ptr, ptr %30, align 8, !tbaa !31
  %32 = call i32 @Vec_PtrSize(ptr noundef %31)
  %33 = icmp slt i32 %28, %32
  br i1 %33, label %34, label %38

34:                                               ; preds = %27
  %35 = load ptr, ptr %4, align 8, !tbaa !3
  %36 = load i32, ptr %10, align 4, !tbaa !10
  %37 = call ptr @Abc_NtkObj(ptr noundef %35, i32 noundef %36)
  store ptr %37, ptr %9, align 8, !tbaa !32
  br label %38

38:                                               ; preds = %34, %27
  %39 = phi i1 [ false, %27 ], [ true, %34 ]
  br i1 %39, label %40, label %115

40:                                               ; preds = %38
  %41 = load ptr, ptr %9, align 8, !tbaa !32
  %42 = icmp eq ptr %41, null
  br i1 %42, label %47, label %43

43:                                               ; preds = %40
  %44 = load ptr, ptr %9, align 8, !tbaa !32
  %45 = call i32 @Abc_ObjIsNode(ptr noundef %44)
  %46 = icmp ne i32 %45, 0
  br i1 %46, label %48, label %47

47:                                               ; preds = %43, %40
  br label %111

48:                                               ; preds = %43
  call void @llvm.lifetime.start.p0(i64 8, ptr %14) #14
  %49 = load ptr, ptr %9, align 8, !tbaa !32
  %50 = getelementptr inbounds nuw %struct.Abc_Obj_t_, ptr %49, i32 0, i32 6
  %51 = load ptr, ptr %50, align 8, !tbaa !34
  store ptr %51, ptr %14, align 8, !tbaa !35
  call void @llvm.lifetime.start.p0(i64 4, ptr %15) #14
  %52 = load ptr, ptr %14, align 8, !tbaa !35
  %53 = call i32 @Mio_GateReadPinNum(ptr noundef %52)
  store i32 %53, ptr %15, align 4, !tbaa !10
  %54 = load ptr, ptr %12, align 8, !tbaa !29
  %55 = load i32, ptr %11, align 4, !tbaa !10
  %56 = load ptr, ptr %9, align 8, !tbaa !32
  %57 = call ptr @Abc_ObjName(ptr noundef %56)
  %58 = call i32 (ptr, ptr, ...) @fprintf(ptr noundef %54, ptr noundef @.str.2, i32 noundef %55, ptr noundef %57, ptr noundef @.str.3) #14
  %59 = load i32, ptr %11, align 4, !tbaa !10
  %60 = add nsw i32 %59, 1
  store i32 %60, ptr %11, align 4, !tbaa !10
  %61 = load ptr, ptr %12, align 8, !tbaa !29
  %62 = load i32, ptr %11, align 4, !tbaa !10
  %63 = load ptr, ptr %9, align 8, !tbaa !32
  %64 = call ptr @Abc_ObjName(ptr noundef %63)
  %65 = call i32 (ptr, ptr, ...) @fprintf(ptr noundef %61, ptr noundef @.str.2, i32 noundef %62, ptr noundef %64, ptr noundef @.str.4) #14
  %66 = load i32, ptr %11, align 4, !tbaa !10
  %67 = add nsw i32 %66, 1
  store i32 %67, ptr %11, align 4, !tbaa !10
  %68 = load ptr, ptr %12, align 8, !tbaa !29
  %69 = load i32, ptr %11, align 4, !tbaa !10
  %70 = load ptr, ptr %9, align 8, !tbaa !32
  %71 = call ptr @Abc_ObjName(ptr noundef %70)
  %72 = call i32 (ptr, ptr, ...) @fprintf(ptr noundef %68, ptr noundef @.str.2, i32 noundef %69, ptr noundef %71, ptr noundef @.str.5) #14
  %73 = load i32, ptr %11, align 4, !tbaa !10
  %74 = add nsw i32 %73, 1
  store i32 %74, ptr %11, align 4, !tbaa !10
  %75 = load i32, ptr %6, align 4, !tbaa !10
  %76 = icmp ne i32 %75, 0
  br i1 %76, label %77, label %78

77:                                               ; preds = %48
  store i32 4, ptr %13, align 4
  br label %108

78:                                               ; preds = %48
  %79 = load ptr, ptr %7, align 8, !tbaa !27
  %80 = call ptr @Mio_LibraryReadGates(ptr noundef %79)
  store ptr %80, ptr %8, align 8, !tbaa !35
  br label %81

81:                                               ; preds = %104, %78
  %82 = load ptr, ptr %8, align 8, !tbaa !35
  %83 = icmp ne ptr %82, null
  br i1 %83, label %84, label %107

84:                                               ; preds = %81
  %85 = load ptr, ptr %8, align 8, !tbaa !35
  %86 = load ptr, ptr %14, align 8, !tbaa !35
  %87 = icmp ne ptr %85, %86
  br i1 %87, label %88, label %103

88:                                               ; preds = %84
  %89 = load ptr, ptr %8, align 8, !tbaa !35
  %90 = call i32 @Mio_GateReadPinNum(ptr noundef %89)
  %91 = load i32, ptr %15, align 4, !tbaa !10
  %92 = icmp eq i32 %90, %91
  br i1 %92, label %93, label %103

93:                                               ; preds = %88
  %94 = load ptr, ptr %12, align 8, !tbaa !29
  %95 = load i32, ptr %11, align 4, !tbaa !10
  %96 = load ptr, ptr %9, align 8, !tbaa !32
  %97 = call ptr @Abc_ObjName(ptr noundef %96)
  %98 = load ptr, ptr %8, align 8, !tbaa !35
  %99 = call ptr @Mio_GateReadName(ptr noundef %98)
  %100 = call i32 (ptr, ptr, ...) @fprintf(ptr noundef %94, ptr noundef @.str.2, i32 noundef %95, ptr noundef %97, ptr noundef %99) #14
  %101 = load i32, ptr %11, align 4, !tbaa !10
  %102 = add nsw i32 %101, 1
  store i32 %102, ptr %11, align 4, !tbaa !10
  br label %103

103:                                              ; preds = %93, %88, %84
  br label %104

104:                                              ; preds = %103
  %105 = load ptr, ptr %8, align 8, !tbaa !35
  %106 = call ptr @Mio_GateReadNext(ptr noundef %105)
  store ptr %106, ptr %8, align 8, !tbaa !35
  br label %81, !llvm.loop !37

107:                                              ; preds = %81
  store i32 0, ptr %13, align 4
  br label %108

108:                                              ; preds = %107, %77
  call void @llvm.lifetime.end.p0(i64 4, ptr %15) #14
  call void @llvm.lifetime.end.p0(i64 8, ptr %14) #14
  %109 = load i32, ptr %13, align 4
  switch i32 %109, label %132 [
    i32 0, label %110
    i32 4, label %112
  ]

110:                                              ; preds = %108
  br label %111

111:                                              ; preds = %110, %47
  br label %112

112:                                              ; preds = %111, %108
  %113 = load i32, ptr %10, align 4, !tbaa !10
  %114 = add nsw i32 %113, 1
  store i32 %114, ptr %10, align 4, !tbaa !10
  br label %27, !llvm.loop !39

115:                                              ; preds = %38
  %116 = load ptr, ptr %5, align 8, !tbaa !8
  %117 = load ptr, ptr %4, align 8, !tbaa !3
  %118 = call ptr @Abc_NtkName(ptr noundef %117)
  %119 = load ptr, ptr %4, align 8, !tbaa !3
  %120 = call i32 @Abc_NtkNodeNum(ptr noundef %119)
  %121 = load i32, ptr %11, align 4, !tbaa !10
  %122 = sub nsw i32 %121, 1
  %123 = load i32, ptr %6, align 4, !tbaa !10
  %124 = icmp ne i32 %123, 0
  %125 = select i1 %124, ptr @.str.7, ptr @.str.8
  %126 = call i32 (ptr, ...) @printf(ptr noundef @.str.6, ptr noundef %116, ptr noundef %118, i32 noundef %120, i32 noundef %122, ptr noundef %125)
  %127 = load ptr, ptr %12, align 8, !tbaa !29
  %128 = call i32 @fclose(ptr noundef %127)
  store i32 0, ptr %13, align 4
  br label %129

129:                                              ; preds = %115, %23
  call void @llvm.lifetime.end.p0(i64 8, ptr %12) #14
  call void @llvm.lifetime.end.p0(i64 4, ptr %11) #14
  call void @llvm.lifetime.end.p0(i64 4, ptr %10) #14
  call void @llvm.lifetime.end.p0(i64 8, ptr %9) #14
  call void @llvm.lifetime.end.p0(i64 8, ptr %8) #14
  call void @llvm.lifetime.end.p0(i64 8, ptr %7) #14
  %130 = load i32, ptr %13, align 4
  switch i32 %130, label %132 [
    i32 0, label %131
    i32 1, label %131
  ]

131:                                              ; preds = %129, %129
  ret void

132:                                              ; preds = %129, %108
  unreachable
}