; Function Attrs: nounwind uwtable
define void @Abc_NtkGenFaultList(ptr noundef readonly captures(none) %0, ptr noundef %1, i32 noundef %2) local_unnamed_addr #0 {
  %4 = getelementptr inbounds nuw i8, ptr %0, i64 256
  %5 = load ptr, ptr %4, align 8, !tbaa !3
  %6 = tail call noalias ptr @fopen(ptr noundef %1, ptr noundef nonnull @.str)
  %7 = icmp eq ptr %6, null
  br i1 %7, label %48, label %.preheader

.preheader:                                       ; preds = %3
  %8 = getelementptr inbounds nuw i8, ptr %0, i64 32
  %9 = load ptr, ptr %8, align 8, !tbaa !24
  %10 = getelementptr i8, ptr %9, i64 4
  %.val59 = load i32, ptr %10, align 4, !tbaa !25
  %11 = icmp sgt i32 %.val59, 0
  br i1 %11, label %.lr.ph62, label %.critedge

.lr.ph62:                                         ; preds = %.preheader
  %.not48 = icmp eq i32 %2, 0
  br i1 %.not48, label %.lr.ph62.split.us, label %.lr.ph62.split

.lr.ph62.split.us:                                ; preds = %.lr.ph62, %.loopexit.us
  %indvars.iv66 = phi i64 [ %indvars.iv.next67, %.loopexit.us ], [ 0, %.lr.ph62 ]
  %12 = phi ptr [ %44, %.loopexit.us ], [ %9, %.lr.ph62 ]
  %.04460.us = phi i32 [ %.4.us, %.loopexit.us ], [ 1, %.lr.ph62 ]
  %13 = getelementptr i8, ptr %12, i64 8
  %.val51.val.us = load ptr, ptr %13, align 8, !tbaa !27
  %14 = getelementptr inbounds nuw ptr, ptr %.val51.val.us, i64 %indvars.iv66
  %15 = load ptr, ptr %14, align 8, !tbaa !28
  %16 = icmp eq ptr %15, null
  br i1 %16, label %.loopexit.us, label %17

17:                                               ; preds = %.lr.ph62.split.us
  %18 = getelementptr i8, ptr %15, i64 20
  %.val52.us = load i32, ptr %18, align 4
  %19 = and i32 %.val52.us, 15
  %.not55.us = icmp eq i32 %19, 7
  br i1 %.not55.us, label %20, label %.loopexit.us

20:                                               ; preds = %17
  %21 = getelementptr inbounds nuw i8, ptr %15, i64 56
  %22 = load ptr, ptr %21, align 8, !tbaa !29
  %23 = tail call i32 @Mio_GateReadPinNum(ptr noundef %22) #32
  %24 = tail call ptr @Abc_ObjName(ptr noundef nonnull %15) #32
  %25 = tail call i32 (ptr, ptr, ...) @fprintf(ptr noundef nonnull %6, ptr noundef nonnull @.str.2, i32 noundef %.04460.us, ptr noundef %24, ptr noundef nonnull @.str.3) #32
  %26 = add nsw i32 %.04460.us, 1
  %27 = tail call ptr @Abc_ObjName(ptr noundef nonnull %15) #32
  %28 = tail call i32 (ptr, ptr, ...) @fprintf(ptr noundef nonnull %6, ptr noundef nonnull @.str.2, i32 noundef %26, ptr noundef %27, ptr noundef nonnull @.str.4) #32
  %29 = add nsw i32 %.04460.us, 2
  %30 = tail call ptr @Abc_ObjName(ptr noundef nonnull %15) #32
  %31 = tail call i32 (ptr, ptr, ...) @fprintf(ptr noundef nonnull %6, ptr noundef nonnull @.str.2, i32 noundef %29, ptr noundef %30, ptr noundef nonnull @.str.5) #32
  %32 = add nsw i32 %.04460.us, 3
  %33 = tail call ptr @Mio_LibraryReadGates(ptr noundef %5) #32
  %.not4956.us = icmp eq ptr %33, null
  br i1 %.not4956.us, label %.loopexit.us, label %.lr.ph.us

.lr.ph.us:                                        ; preds = %20, %42
  %.058.us = phi ptr [ %43, %42 ], [ %33, %20 ]
  %.257.us = phi i32 [ %.3.us, %42 ], [ %32, %20 ]
  %.not50.us = icmp eq ptr %.058.us, %22
  br i1 %.not50.us, label %42, label %34

34:                                               ; preds = %.lr.ph.us
  %35 = tail call i32 @Mio_GateReadPinNum(ptr noundef nonnull %.058.us) #32
  %36 = icmp eq i32 %35, %23
  br i1 %36, label %37, label %42

37:                                               ; preds = %34
  %38 = tail call ptr @Abc_ObjName(ptr noundef nonnull %15) #32
  %39 = tail call ptr @Mio_GateReadName(ptr noundef nonnull %.058.us) #32
  %40 = tail call i32 (ptr, ptr, ...) @fprintf(ptr noundef nonnull %6, ptr noundef nonnull @.str.2, i32 noundef %.257.us, ptr noundef %38, ptr noundef %39) #32
  %41 = add nsw i32 %.257.us, 1
  br label %42

42:                                               ; preds = %37, %34, %.lr.ph.us
  %.3.us = phi i32 [ %41, %37 ], [ %.257.us, %34 ], [ %.257.us, %.lr.ph.us ]
  %43 = tail call ptr @Mio_GateReadNext(ptr noundef nonnull %.058.us) #32
  %.not49.us = icmp eq ptr %43, null
  br i1 %.not49.us, label %.loopexit.us, label %.lr.ph.us, !llvm.loop !30

.loopexit.us:                                     ; preds = %42, %20, %17, %.lr.ph62.split.us
  %.4.us = phi i32 [ %.04460.us, %.lr.ph62.split.us ], [ %.04460.us, %17 ], [ %32, %20 ], [ %.3.us, %42 ]
  %indvars.iv.next67 = add nuw nsw i64 %indvars.iv66, 1
  %44 = load ptr, ptr %8, align 8, !tbaa !24
  %45 = getelementptr i8, ptr %44, i64 4
  %.val.us = load i32, ptr %45, align 4, !tbaa !25
  %46 = sext i32 %.val.us to i64
  %47 = icmp slt i64 %indvars.iv.next67, %46
  br i1 %47, label %.lr.ph62.split.us, label %.critedge, !llvm.loop !32

48:                                               ; preds = %3
  %49 = tail call i32 (ptr, ...) @printf(ptr noundef nonnull dereferenceable(1) @.str.1, ptr noundef %1)
  br label %82

.lr.ph62.split:                                   ; preds = %.lr.ph62, %71
  %50 = phi ptr [ %72, %71 ], [ %9, %.lr.ph62 ]
  %indvars.iv = phi i64 [ %indvars.iv.next, %71 ], [ 0, %.lr.ph62 ]
  %.04460 = phi i32 [ %.4, %71 ], [ 1, %.lr.ph62 ]
  %51 = getelementptr i8, ptr %50, i64 8
  %.val51.val = load ptr, ptr %51, align 8, !tbaa !27
  %52 = getelementptr inbounds nuw ptr, ptr %.val51.val, i64 %indvars.iv
  %53 = load ptr, ptr %52, align 8, !tbaa !28
  %54 = icmp eq ptr %53, null
  br i1 %54, label %71, label %55

55:                                               ; preds = %.lr.ph62.split
  %56 = getelementptr i8, ptr %53, i64 20
  %.val52 = load i32, ptr %56, align 4
  %57 = and i32 %.val52, 15
  %.not55 = icmp eq i32 %57, 7
  br i1 %.not55, label %58, label %71

58:                                               ; preds = %55
  %59 = getelementptr inbounds nuw i8, ptr %53, i64 56
  %60 = load ptr, ptr %59, align 8, !tbaa !29
  %61 = tail call i32 @Mio_GateReadPinNum(ptr noundef %60) #32
  %62 = tail call ptr @Abc_ObjName(ptr noundef nonnull %53) #32
  %63 = tail call i32 (ptr, ptr, ...) @fprintf(ptr noundef nonnull %6, ptr noundef nonnull @.str.2, i32 noundef %.04460, ptr noundef %62, ptr noundef nonnull @.str.3) #32
  %64 = add nsw i32 %.04460, 1
  %65 = tail call ptr @Abc_ObjName(ptr noundef nonnull %53) #32
  %66 = tail call i32 (ptr, ptr, ...) @fprintf(ptr noundef nonnull %6, ptr noundef nonnull @.str.2, i32 noundef %64, ptr noundef %65, ptr noundef nonnull @.str.4) #32
  %67 = add nsw i32 %.04460, 2
  %68 = tail call ptr @Abc_ObjName(ptr noundef nonnull %53) #32
  %69 = tail call i32 (ptr, ptr, ...) @fprintf(ptr noundef nonnull %6, ptr noundef nonnull @.str.2, i32 noundef %67, ptr noundef %68, ptr noundef nonnull @.str.5) #32
  %70 = add nsw i32 %.04460, 3
  %.pre = load ptr, ptr %8, align 8, !tbaa !24
  br label %71

71:                                               ; preds = %58, %55, %.lr.ph62.split
  %72 = phi ptr [ %50, %.lr.ph62.split ], [ %50, %55 ], [ %.pre, %58 ]
  %.4 = phi i32 [ %.04460, %.lr.ph62.split ], [ %.04460, %55 ], [ %70, %58 ]
  %indvars.iv.next = add nuw nsw i64 %indvars.iv, 1
  %73 = getelementptr i8, ptr %72, i64 4
  %.val = load i32, ptr %73, align 4, !tbaa !25
  %74 = sext i32 %.val to i64
  %75 = icmp slt i64 %indvars.iv.next, %74
  br i1 %75, label %.lr.ph62.split, label %.critedge, !llvm.loop !32

.critedge:                                        ; preds = %71, %.loopexit.us, %.preheader
  %.044.lcssa = phi i32 [ 1, %.preheader ], [ %.4.us, %.loopexit.us ], [ %.4, %71 ]
  %76 = getelementptr i8, ptr %0, i64 8
  %.val53 = load ptr, ptr %76, align 8, !tbaa !33
  %77 = getelementptr i8, ptr %0, i64 124
  %.val54 = load i32, ptr %77, align 4, !tbaa !34
  %78 = add nsw i32 %.044.lcssa, -1
  %.not = icmp eq i32 %2, 0
  %79 = select i1 %.not, ptr @.str.8, ptr @.str.7
  %80 = tail call i32 (ptr, ...) @printf(ptr noundef nonnull dereferenceable(1) @.str.6, ptr noundef %1, ptr noundef %.val53, i32 noundef %.val54, i32 noundef %78, ptr noundef nonnull %79)
  %81 = tail call i32 @fclose(ptr noundef nonnull %6)
  br label %82

82:                                               ; preds = %.critedge, %48
  ret void
}